target datalayout = "e-m:e-p270:32:32-p271:32:32-p272:64:64-i64:64-i128:128-f80:128-n8:16:32:64-S128"
target triple = "x86_64-pc-linux-gnu"

%struct.AVFilterContext = type { ptr, ptr, ptr, ptr, ptr, i32, ptr, ptr, i32, ptr, ptr, i32, i32, ptr, ptr, ptr, ptr, i32, ptr, i32, i32 }
%struct.SetPTSContext = type { ptr, ptr, ptr, i32, [21 x double], i32 }

@.str.7 = private unnamed_addr constant [5 x i8] c"expr\00", align 1
@.str.13 = private unnamed_addr constant [37 x i8] c"Error while parsing expression '%s'\0A\00", align 1

; Function Attrs: nounwind uwtable
define internal i32 @process_command(ptr noundef %0, ptr noundef %1, ptr noundef %2, ptr noundef %3, i32 noundef %4, i32 noundef %5) #1 {
  %7 = alloca i32, align 4
  %8 = alloca ptr, align 8
  %9 = alloca ptr, align 8
  %10 = alloca ptr, align 8
  %11 = alloca ptr, align 8
  %12 = alloca i32, align 4
  %13 = alloca i32, align 4
  %14 = alloca ptr, align 8
  %15 = alloca ptr, align 8
  %16 = alloca i32, align 4
  %17 = alloca i32, align 4
  store ptr %0, ptr %8, align 8, !tbaa !4
  store ptr %1, ptr %9, align 8, !tbaa !31
  store ptr %2, ptr %10, align 8, !tbaa !31
  store ptr %3, ptr %11, align 8, !tbaa !31
  store i32 %4, ptr %12, align 4, !tbaa !27
  store i32 %5, ptr %13, align 4, !tbaa !27
  call void @llvm.lifetime.start.p0(i64 8, ptr %14) #10
  %18 = load ptr, ptr %8, align 8, !tbaa !4
  %19 = getelementptr inbounds nuw %struct.AVFilterContext, ptr %18, i32 0, i32 9
  %20 = load ptr, ptr %19, align 8, !tbaa !9
  store ptr %20, ptr %14, align 8, !tbaa !22
  call void @llvm.lifetime.start.p0(i64 8, ptr %15) #10
  call void @llvm.lifetime.start.p0(i64 4, ptr %16) #10
  %21 = load ptr, ptr %8, align 8, !tbaa !4
  %22 = load ptr, ptr %9, align 8, !tbaa !31
  %23 = load ptr, ptr %10, align 8, !tbaa !31
  %24 = load ptr, ptr %11, align 8, !tbaa !31
  %25 = load i32, ptr %12, align 4, !tbaa !27
  %26 = load i32, ptr %13, align 4, !tbaa !27
  %27 = call i32 @ff_filter_process_command(ptr noundef %21, ptr noundef %22, ptr noundef %23, ptr noundef %24, i32 noundef %25, i32 noundef %26)
  store i32 %27, ptr %16, align 4, !tbaa !27
  %28 = load i32, ptr %16, align 4, !tbaa !27
  %29 = icmp slt i32 %28, 0
  br i1 %29, label %30, label %32

30:                                               ; preds = %6
  %31 = load i32, ptr %16, align 4, !tbaa !27
  store i32 %31, ptr %7, align 4
  store i32 1, ptr %17, align 4
  br label %59

32:                                               ; preds = %6
  %33 = load ptr, ptr %9, align 8, !tbaa !31
  %34 = call i32 @strcmp(ptr noundef %33, ptr noundef @.str.7) #11
  %35 = icmp ne i32 %34, 0
  br i1 %35, label %56, label %36

36:                                               ; preds = %32
  %37 = load ptr, ptr %10, align 8, !tbaa !31
  %38 = load ptr, ptr %8, align 8, !tbaa !4
  %39 = call i32 @av_expr_parse(ptr noundef %15, ptr noundef %37, ptr noundef @var_names, ptr noundef null, ptr noundef null, ptr noundef null, ptr noundef null, i32 noundef 0, ptr noundef %38)
  store i32 %39, ptr %16, align 4, !tbaa !27
  %40 = load i32, ptr %16, align 4, !tbaa !27
  %41 = icmp slt i32 %40, 0
  br i1 %41, label %42, label %45

42:                                               ; preds = %36
  %43 = load ptr, ptr %8, align 8, !tbaa !4
  %44 = load ptr, ptr %10, align 8, !tbaa !31
  call void (ptr, i32, ptr, ...) @av_log(ptr noundef %43, i32 noundef 16, ptr noundef @.str.13, ptr noundef %44)
  br label %55

45:                                               ; preds = %36
  %46 = load ptr, ptr %14, align 8, !tbaa !22
  %47 = getelementptr inbounds nuw %struct.SetPTSContext, ptr %46, i32 0, i32 2
  %48 = load ptr, ptr %47, align 8, !tbaa !30
  call void @av_expr_free(ptr noundef %48)
  %49 = load ptr, ptr %15, align 8, !tbaa !32
  %50 = load ptr, ptr %14, align 8, !tbaa !22
  %51 = getelementptr inbounds nuw %struct.SetPTSContext, ptr %50, i32 0, i32 2
  store ptr %49, ptr %51, align 8, !tbaa !30
  %52 = load ptr, ptr %14, align 8, !tbaa !22
  %53 = getelementptr inbounds nuw %struct.SetPTSContext, ptr %52, i32 0, i32 4
  %54 = getelementptr inbounds [21 x double], ptr %53, i64 0, i64 20
  store double 0x7FF8000000000000, ptr %54, align 8, !tbaa !28
  br label %55

55:                                               ; preds = %45, %42
  br label %57

56:                                               ; preds = %32
  store i32 -22, ptr %16, align 4, !tbaa !27
  br label %57

57:                                               ; preds = %56, %55
  %58 = load i32, ptr %16, align 4, !tbaa !27
  store i32 %58, ptr %7, align 4
  store i32 1, ptr %17, align 4
  br label %59

59:                                               ; preds = %57, %30
  call void @llvm.lifetime.end.p0(i64 4, ptr %16) #10
  call void @llvm.lifetime.end.p0(i64 8, ptr %15) #10
  call void @llvm.lifetime.end.p0(i64 8, ptr %14) #10
  %60 = load i32, ptr %7, align 4
  ret i32 %60
}