; Function Attrs: nounwind uwtable
define internal i32 @process_command(ptr noundef %0, ptr noundef %1, ptr noundef %2, ptr noundef %3, i32 noundef %4, i32 noundef %5) #1 {
  %7 = alloca ptr, align 8
  %8 = getelementptr inbounds nuw i8, ptr %0, i64 72
  %9 = load ptr, ptr %8, align 8, !tbaa !4
  call void @llvm.lifetime.start.p0(i64 8, ptr nonnull %7) #8
  %10 = tail call i32 @ff_filter_process_command(ptr noundef %0, ptr noundef %1, ptr noundef %2, ptr noundef %3, i32 noundef %4, i32 noundef %5) #8
  %11 = icmp slt i32 %10, 0
  br i1 %11, label %23, label %12

12:                                               ; preds = %6
  %13 = tail call i32 @strcmp(ptr noundef nonnull dereferenceable(1) %1, ptr noundef nonnull dereferenceable(5) @.str.7) #9
  %.not = icmp eq i32 %13, 0
  br i1 %.not, label %14, label %23

14:                                               ; preds = %12
  %15 = call i32 @av_expr_parse(ptr noundef nonnull %7, ptr noundef %2, ptr noundef nonnull @var_names, ptr noundef null, ptr noundef null, ptr noundef null, ptr noundef null, i32 noundef 0, ptr noundef nonnull %0) #8
  %16 = icmp slt i32 %15, 0
  br i1 %16, label %17, label %18

17:                                               ; preds = %14
  call void (ptr, i32, ptr, ...) @av_log(ptr noundef nonnull %0, i32 noundef 16, ptr noundef nonnull @.str.13, ptr noundef %2) #8
  br label %23

18:                                               ; preds = %14
  %19 = getelementptr inbounds nuw i8, ptr %9, i64 16
  %20 = load ptr, ptr %19, align 8, !tbaa !25
  call void @av_expr_free(ptr noundef %20) #8
  %21 = load ptr, ptr %7, align 8, !tbaa !26
  store ptr %21, ptr %19, align 8, !tbaa !25
  %22 = getelementptr inbounds nuw i8, ptr %9, i64 192
  store double 0x7FF8000000000000, ptr %22, align 8, !tbaa !23
  br label %23

23:                                               ; preds = %18, %17, %12, %6
  %.019 = phi i32 [ %10, %6 ], [ %15, %17 ], [ %15, %18 ], [ -22, %12 ]
  call void @llvm.lifetime.end.p0(i64 8, ptr nonnull %7) #8
  ret i32 %.019
}